; Function Attrs: nounwind sspstrong uwtable
define dso_local void @del_boot_device_lchs(ptr noundef readnone %dev, ptr noundef %suffix) local_unnamed_addr #1 {
entry:
  %cmp = icmp eq ptr %dev, null
  br i1 %cmp, label %for.end, label %for.cond.preheader

for.cond.preheader:                               ; preds = %entry
  %i.018 = load ptr, ptr @fw_lchs, align 8
  %tobool.not19 = icmp eq ptr %i.018, null
  br i1 %tobool.not19, label %for.end, label %for.body.lr.ph

for.body.lr.ph:                                   ; preds = %for.cond.preheader
  %tobool1.not = icmp eq ptr %suffix, null
  br i1 %tobool1.not, label %for.body.us, label %for.body

for.body.us:                                      ; preds = %for.body.lr.ph, %for.inc.us
  %i.020.us = phi ptr [ %i.0.us, %for.inc.us ], [ %i.018, %for.body.lr.ph ]
  %dev4.us = getelementptr inbounds nuw i8, ptr %i.020.us, i64 16
  %0 = load ptr, ptr %dev4.us, align 8
  %cmp5.us = icmp eq ptr %0, %dev
  br i1 %cmp5.us, label %do.body, label %for.inc.us

for.inc.us:                                       ; preds = %for.body.us
  %i.0.us = load ptr, ptr %i.020.us, align 8
  %tobool.not.us = icmp eq ptr %i.0.us, null
  br i1 %tobool.not.us, label %for.end, label %for.body.us, !llvm.loop !12

for.body:                                         ; preds = %for.body.lr.ph, %for.inc
  %i.020 = phi ptr [ %i.0, %for.inc ], [ %i.018, %for.body.lr.ph ]
  %suffix2 = getelementptr inbounds nuw i8, ptr %i.020, i64 24
  %1 = load ptr, ptr %suffix2, align 8
  %call = tail call i32 @g_strcmp0(ptr noundef %1, ptr noundef nonnull %suffix) #11
  %tobool3.not = icmp eq i32 %call, 0
  br i1 %tobool3.not, label %land.lhs.true, label %for.inc

land.lhs.true:                                    ; preds = %for.body
  %dev4 = getelementptr inbounds nuw i8, ptr %i.020, i64 16
  %2 = load ptr, ptr %dev4, align 8
  %cmp5 = icmp eq ptr %2, %dev
  br i1 %cmp5, label %do.body, label %for.inc

do.body:                                          ; preds = %land.lhs.true, %for.body.us
  %.us-phi = phi ptr [ %i.020.us, %for.body.us ], [ %i.020, %land.lhs.true ]
  %3 = load ptr, ptr %.us-phi, align 8
  %cmp7.not = icmp eq ptr %3, null
  %tql_prev14 = getelementptr inbounds nuw i8, ptr %.us-phi, i64 8
  %4 = load ptr, ptr %tql_prev14, align 8
  br i1 %cmp7.not, label %if.else, label %if.then8

if.then8:                                         ; preds = %do.body
  %tql_prev12 = getelementptr inbounds nuw i8, ptr %3, i64 8
  store ptr %4, ptr %tql_prev12, align 8
  br label %if.end15

if.else:                                          ; preds = %do.body
  store ptr %4, ptr getelementptr inbounds nuw (i8, ptr @fw_lchs, i64 8), align 8
  br label %if.end15

if.end15:                                         ; preds = %if.else, %if.then8
  %5 = load ptr, ptr %.us-phi, align 8
  store ptr %5, ptr %4, align 8
  %suffix24 = getelementptr inbounds nuw i8, ptr %.us-phi, i64 24
  tail call void @llvm.memset.p0.i64(ptr noundef nonnull align 8 dereferenceable(16) %.us-phi, i8 0, i64 16, i1 false)
  %6 = load ptr, ptr %suffix24, align 8
  tail call void @g_free(ptr noundef %6) #11
  tail call void @g_free(ptr noundef nonnull %.us-phi) #11
  br label %for.end

for.inc:                                          ; preds = %for.body, %land.lhs.true
  %i.0 = load ptr, ptr %i.020, align 8
  %tobool.not = icmp eq ptr %i.0, null
  br i1 %tobool.not, label %for.end, label %for.body, !llvm.loop !12

for.end:                                          ; preds = %for.inc, %for.inc.us, %for.cond.preheader, %entry, %if.end15
  ret void
}